ARM GAS  C:\Users\Ilaria\AppData\Local\Temp\ccZUs8V0.s 			page 1


   1              		.syntax unified
   2              		.cpu cortex-m3
   3              		.fpu softvfp
   4              		.eabi_attribute 20, 1
   5              		.eabi_attribute 21, 1
   6              		.eabi_attribute 23, 3
   7              		.eabi_attribute 24, 1
   8              		.eabi_attribute 25, 1
   9              		.eabi_attribute 26, 1
  10              		.eabi_attribute 30, 1
  11              		.eabi_attribute 34, 1
  12              		.eabi_attribute 18, 4
  13              		.thumb
  14              		.syntax unified
  15              		.file	"InterruptRoutines.c"
  16              		.text
  17              	.Ltext0:
  18              		.cfi_sections	.debug_frame
  19              		.global	__aeabi_i2f
  20              		.global	__aeabi_fadd
  21              		.global	__aeabi_f2d
  22              		.global	__aeabi_dmul
  23              		.global	__aeabi_d2iz
  24              		.section	.text.isr_SendData,"ax",%progbits
  25              		.align	2
  26              		.global	isr_SendData
  27              		.thumb
  28              		.thumb_func
  29              		.type	isr_SendData, %function
  30              	isr_SendData:
  31              	.LFB64:
  32              		.file 1 "InterruptRoutines.c"
   1:InterruptRoutines.c **** /* ========================================
   2:InterruptRoutines.c ****  *
   3:InterruptRoutines.c ****  * Interrupt routines for sending the data at at constant rate 
   4:InterruptRoutines.c ****  *
   5:InterruptRoutines.c ****  * Author: Ilaria Catarrasa
   6:InterruptRoutines.c ****  * ========================================
   7:InterruptRoutines.c **** */
   8:InterruptRoutines.c **** 
   9:InterruptRoutines.c **** /*Include headers*/
  10:InterruptRoutines.c **** #include "InterruptRoutines.h"
  11:InterruptRoutines.c **** #include "I2C_Interface.h"
  12:InterruptRoutines.c **** #include "project.h"
  13:InterruptRoutines.c **** #include "stdio.h"
  14:InterruptRoutines.c **** 
  15:InterruptRoutines.c **** /*Include required header files*/
  16:InterruptRoutines.c **** #include "project.h"
  17:InterruptRoutines.c **** 
  18:InterruptRoutines.c **** #define LIS3DH_DEVICE_ADDRESS 0x18
  19:InterruptRoutines.c **** #define LIS3DH_OUT_X_L 0x28
  20:InterruptRoutines.c **** 
  21:InterruptRoutines.c **** #define LIS3DH_STATUS_REG 0x27
  22:InterruptRoutines.c **** 
  23:InterruptRoutines.c **** uint8_t xyz_positioning[LENGTH_BYTE];             
  24:InterruptRoutines.c **** int16_t Out_ms2;
  25:InterruptRoutines.c **** int32 Out_mms2;
ARM GAS  C:\Users\Ilaria\AppData\Local\Temp\ccZUs8V0.s 			page 2


  26:InterruptRoutines.c **** uint8_t header = 0xA0;
  27:InterruptRoutines.c **** uint8_t footer = 0xC0;
  28:InterruptRoutines.c ****  /*legth wuthout header and footer*/
  29:InterruptRoutines.c **** int i = 0;
  30:InterruptRoutines.c **** 
  31:InterruptRoutines.c **** 
  32:InterruptRoutines.c **** CY_ISR(isr_SendData)
  33:InterruptRoutines.c **** {    
  33              		.loc 1 33 0
  34              		.cfi_startproc
  35              		@ args = 0, pretend = 0, frame = 8
  36              		@ frame_needed = 0, uses_anonymous_args = 0
  37 0000 10B5     		push	{r4, lr}
  38              		.cfi_def_cfa_offset 8
  39              		.cfi_offset 4, -8
  40              		.cfi_offset 14, -4
  41 0002 82B0     		sub	sp, sp, #8
  42              		.cfi_def_cfa_offset 16
  34:InterruptRoutines.c ****     OutArray[0] = header;
  43              		.loc 1 34 0
  44 0004 324B     		ldr	r3, .L6+16
  45 0006 334A     		ldr	r2, .L6+20
  46 0008 1178     		ldrb	r1, [r2]	@ zero_extendqisi2
  47 000a 1970     		strb	r1, [r3]
  35:InterruptRoutines.c ****     OutArray[TRANSMIT_BUFFER_SIZE-1] = footer;
  48              		.loc 1 35 0
  49 000c 5278     		ldrb	r2, [r2, #1]	@ zero_extendqisi2
  50 000e 5A73     		strb	r2, [r3, #13]
  36:InterruptRoutines.c ****     
  37:InterruptRoutines.c ****     uint8_t status_register; 
  38:InterruptRoutines.c ****     
  39:InterruptRoutines.c ****     ErrorCode error = I2C_Peripheral_ReadRegister(LIS3DH_DEVICE_ADDRESS,
  51              		.loc 1 39 0
  52 0010 0DF10702 		add	r2, sp, #7
  53 0014 2721     		movs	r1, #39
  54 0016 1820     		movs	r0, #24
  55 0018 FFF7FEFF 		bl	I2C_Peripheral_ReadRegister
  56              	.LVL0:
  40:InterruptRoutines.c ****                                         LIS3DH_STATUS_REG,
  41:InterruptRoutines.c ****                                         &status_register);
  42:InterruptRoutines.c ****      
  43:InterruptRoutines.c ****     if (error == NO_ERROR)
  57              		.loc 1 43 0
  58 001c 0028     		cmp	r0, #0
  59 001e 4DD1     		bne	.L1
  44:InterruptRoutines.c ****     {
  45:InterruptRoutines.c ****         if(status_register & 0x08)
  60              		.loc 1 45 0
  61 0020 9DF80730 		ldrb	r3, [sp, #7]	@ zero_extendqisi2
  62 0024 13F0080F 		tst	r3, #8
  63 0028 48D0     		beq	.L1
  46:InterruptRoutines.c ****         {        
  47:InterruptRoutines.c ****              //If overrun occurred and new values are available read and send UART values
  48:InterruptRoutines.c ****                 error = I2C_Peripheral_ReadRegisterMulti(LIS3DH_DEVICE_ADDRESS,
  64              		.loc 1 48 0
  65 002a 2B4B     		ldr	r3, .L6+24
  66 002c 0622     		movs	r2, #6
ARM GAS  C:\Users\Ilaria\AppData\Local\Temp\ccZUs8V0.s 			page 3


  67 002e 2821     		movs	r1, #40
  68 0030 1820     		movs	r0, #24
  69              	.LVL1:
  70 0032 FFF7FEFF 		bl	I2C_Peripheral_ReadRegisterMulti
  71              	.LVL2:
  49:InterruptRoutines.c ****                                                 LIS3DH_OUT_X_L,
  50:InterruptRoutines.c ****                                                 6,
  51:InterruptRoutines.c ****                                                 &xyz_positioning[0]);
  52:InterruptRoutines.c ****                 if (error == NO_ERROR)
  72              		.loc 1 52 0
  73 0036 0028     		cmp	r0, #0
  74 0038 40D1     		bne	.L1
  53:InterruptRoutines.c ****                 {
  54:InterruptRoutines.c ****                     for (i = 0; i<LENGTH_BYTE; i+=4)
  75              		.loc 1 54 0
  76 003a 0022     		movs	r2, #0
  77 003c 274B     		ldr	r3, .L6+28
  78 003e 1A60     		str	r2, [r3]
  79 0040 34E0     		b	.L3
  80              	.LVL3:
  81              	.L4:
  55:InterruptRoutines.c ****                     {                                                 
  56:InterruptRoutines.c ****                         Out_ms2 = (int16)((xyz_positioning[i/2] | (xyz_positioning[i/2+1]<<8))) >> 
  82              		.loc 1 56 0 discriminator 3
  83 0042 04EBD473 		add	r3, r4, r4, lsr #31
  84 0046 5B10     		asrs	r3, r3, #1
  85 0048 2349     		ldr	r1, .L6+24
  86 004a CA5C     		ldrb	r2, [r1, r3]	@ zero_extendqisi2
  87 004c 0133     		adds	r3, r3, #1
  88 004e C85C     		ldrb	r0, [r1, r3]	@ zero_extendqisi2
  89 0050 42EA0020 		orr	r0, r2, r0, lsl #8
  57:InterruptRoutines.c ****                         
  58:InterruptRoutines.c ****                         Out_ms2 = (float) Out_ms2*2*9.81*0.001*1000;     /*conversion from mg into 
  90              		.loc 1 58 0 discriminator 3
  91 0054 40F30B10 		sbfx	r0, r0, #4, #12
  92 0058 FFF7FEFF 		bl	__aeabi_i2f
  93              	.LVL4:
  94 005c 0146     		mov	r1, r0
  95 005e FFF7FEFF 		bl	__aeabi_fadd
  96              	.LVL5:
  97 0062 FFF7FEFF 		bl	__aeabi_f2d
  98              	.LVL6:
  99 0066 16A3     		adr	r3, .L6
 100 0068 D3E90023 		ldrd	r2, [r3]
 101 006c FFF7FEFF 		bl	__aeabi_dmul
 102              	.LVL7:
 103 0070 15A3     		adr	r3, .L6+8
 104 0072 D3E90023 		ldrd	r2, [r3]
 105 0076 FFF7FEFF 		bl	__aeabi_dmul
 106              	.LVL8:
 107 007a 0022     		movs	r2, #0
 108 007c 184B     		ldr	r3, .L6+32
 109 007e FFF7FEFF 		bl	__aeabi_dmul
 110              	.LVL9:
 111 0082 FFF7FEFF 		bl	__aeabi_d2iz
 112              	.LVL10:
 113 0086 00B2     		sxth	r0, r0
ARM GAS  C:\Users\Ilaria\AppData\Local\Temp\ccZUs8V0.s 			page 4


 114 0088 164B     		ldr	r3, .L6+36
 115 008a 1880     		strh	r0, [r3]	@ movhi
  59:InterruptRoutines.c ****                                                             * 2 is Typ. spec. from datasheet,      
  60:InterruptRoutines.c ****                                                             * 9.8 is the conversion factor to m/s2 
  61:InterruptRoutines.c ****                                                             * 0.001 is to convert from msec to sec
  62:InterruptRoutines.c ****                                                             * 1000 conversion into mm/s2 for saving
  63:InterruptRoutines.c ****                         
  64:InterruptRoutines.c ****                         Out_mms2 = (int32) Out_ms2;             //
 116              		.loc 1 64 0 discriminator 3
 117 008c 164B     		ldr	r3, .L6+40
 118 008e 1860     		str	r0, [r3]
  65:InterruptRoutines.c ****                         OutArray[i+1] = (uint8_t)(Out_mms2 & 0xFF);  //I send the data in 4 byte to
 119              		.loc 1 65 0 discriminator 3
 120 0090 621C     		adds	r2, r4, #1
 121 0092 0F4B     		ldr	r3, .L6+16
 122 0094 9854     		strb	r0, [r3, r2]
  66:InterruptRoutines.c ****                         OutArray[i+2] = (uint8_t)(Out_mms2 >> 8);
 123              		.loc 1 66 0 discriminator 3
 124 0096 A21C     		adds	r2, r4, #2
 125 0098 C0F30721 		ubfx	r1, r0, #8, #8
 126 009c 9954     		strb	r1, [r3, r2]
  67:InterruptRoutines.c ****                         OutArray[i+3] = (uint8_t)(Out_mms2 >> 16);
 127              		.loc 1 67 0 discriminator 3
 128 009e E21C     		adds	r2, r4, #3
 129 00a0 010E     		lsrs	r1, r0, #24
 130 00a2 9954     		strb	r1, [r3, r2]
  68:InterruptRoutines.c ****                         OutArray[i+4] = (uint8_t)(Out_mms2 >> 24);
 131              		.loc 1 68 0 discriminator 3
 132 00a4 0434     		adds	r4, r4, #4
 133 00a6 1955     		strb	r1, [r3, r4]
  54:InterruptRoutines.c ****                     {                                                 
 134              		.loc 1 54 0 discriminator 3
 135 00a8 0C4B     		ldr	r3, .L6+28
 136 00aa 1C60     		str	r4, [r3]
 137              	.L3:
  54:InterruptRoutines.c ****                     {                                                 
 138              		.loc 1 54 0 is_stmt 0 discriminator 1
 139 00ac 0B4B     		ldr	r3, .L6+28
 140 00ae 1C68     		ldr	r4, [r3]
 141 00b0 0B2C     		cmp	r4, #11
 142 00b2 C6DD     		ble	.L4
  69:InterruptRoutines.c ****                     }
  70:InterruptRoutines.c ****                     
  71:InterruptRoutines.c ****                     //UART_Debug_PutString("Read data complete.\r\n");    
  72:InterruptRoutines.c ****                     UART_Debug_PutArray(OutArray, TRANSMIT_BUFFER_SIZE); 
 143              		.loc 1 72 0 is_stmt 1
 144 00b4 0E21     		movs	r1, #14
 145 00b6 0648     		ldr	r0, .L6+16
 146 00b8 FFF7FEFF 		bl	UART_Debug_PutArray
 147              	.LVL11:
 148              	.L1:
  73:InterruptRoutines.c ****                 }                              
  74:InterruptRoutines.c ****                 
  75:InterruptRoutines.c ****         }
  76:InterruptRoutines.c ****         else
  77:InterruptRoutines.c ****         {
  78:InterruptRoutines.c ****            //UART_Debug_PutString("Data Not available.\r\n "); 
ARM GAS  C:\Users\Ilaria\AppData\Local\Temp\ccZUs8V0.s 			page 5


  79:InterruptRoutines.c ****         }
  80:InterruptRoutines.c ****         
  81:InterruptRoutines.c ****         
  82:InterruptRoutines.c ****     
  83:InterruptRoutines.c ****     }
  84:InterruptRoutines.c ****     
  85:InterruptRoutines.c ****     
  86:InterruptRoutines.c **** 
  87:InterruptRoutines.c **** }
 149              		.loc 1 87 0
 150 00bc 02B0     		add	sp, sp, #8
 151              		.cfi_def_cfa_offset 8
 152              		@ sp needed
 153 00be 10BD     		pop	{r4, pc}
 154              	.L7:
 155              		.align	3
 156              	.L6:
 157 00c0 1F85EB51 		.word	1374389535
 158 00c4 B89E2340 		.word	1076076216
 159 00c8 FCA9F1D2 		.word	-755914244
 160 00cc 4D62503F 		.word	1062232653
 161 00d0 00000000 		.word	OutArray
 162 00d4 00000000 		.word	.LANCHOR0
 163 00d8 00000000 		.word	xyz_positioning
 164 00dc 00000000 		.word	.LANCHOR1
 165 00e0 00408F40 		.word	1083129856
 166 00e4 00000000 		.word	Out_ms2
 167 00e8 00000000 		.word	Out_mms2
 168              		.cfi_endproc
 169              	.LFE64:
 170              		.size	isr_SendData, .-isr_SendData
 171              		.global	i
 172              		.global	footer
 173              		.global	header
 174              		.comm	Out_mms2,4,4
 175              		.comm	Out_ms2,2,2
 176              		.comm	xyz_positioning,12,4
 177              		.comm	OutArray,14,4
 178              		.data
 179              		.set	.LANCHOR0,. + 0
 180              		.type	header, %object
 181              		.size	header, 1
 182              	header:
 183 0000 A0       		.byte	-96
 184              		.type	footer, %object
 185              		.size	footer, 1
 186              	footer:
 187 0001 C0       		.byte	-64
 188              		.bss
 189              		.align	2
 190              		.set	.LANCHOR1,. + 0
 191              		.type	i, %object
 192              		.size	i, 4
 193              	i:
 194 0000 00000000 		.space	4
 195              		.text
 196              	.Letext0:
ARM GAS  C:\Users\Ilaria\AppData\Local\Temp\ccZUs8V0.s 			page 6


 197              		.file 2 "c:\\program files (x86)\\cypress\\psoc creator\\4.3\\psoc creator\\import\\gnu\\arm\\5.4.
 198              		.file 3 "c:\\program files (x86)\\cypress\\psoc creator\\4.3\\psoc creator\\import\\gnu\\arm\\5.4.
 199              		.file 4 "Generated_Source\\PSoC5/cytypes.h"
 200              		.file 5 "ErrorCodes.h"
 201              		.file 6 "Generated_Source\\PSoC5/core_cm3.h"
 202              		.file 7 "InterruptRoutines.h"
 203              		.file 8 "I2C_Interface.h"
 204              		.file 9 "Generated_Source\\PSoC5/UART_Debug.h"